target datalayout = "e-m:e-p270:32:32-p271:32:32-p272:64:64-i64:64-i128:128-f80:128-n8:16:32:64-S128"
target triple = "x86_64-pc-linux-gnu"

%struct.job_step_info_t = type { i32, i32, ptr, ptr, ptr, i32, i32, i32, ptr, ptr, ptr, ptr, ptr, ptr, i32, i32, ptr, ptr, i64, ptr, i32, i64, i16, i32, %struct.slurm_step_id_msg, ptr, i32, i32, ptr, ptr, ptr, ptr, ptr, ptr, ptr, i32 }
%struct.slurm_step_id_msg = type { i64, i32, i32, i32 }

@reverse_order = internal global i8 0, align 1

; Function Attrs: inlinehint nounwind uwtable
define internal i32 @_diff_uint32(i32 noundef %0, i32 noundef %1) #6 {
  %3 = alloca i32, align 4
  %4 = alloca i32, align 4
  %5 = alloca i32, align 4
  store i32 %0, ptr %4, align 4
  store i32 %1, ptr %5, align 4
  %6 = load i32, ptr %4, align 4
  %7 = load i32, ptr %5, align 4
  %8 = icmp ugt i32 %6, %7
  br i1 %8, label %9, label %10

9:                                                ; preds = %2
  store i32 1, ptr %3, align 4
  br label %16

10:                                               ; preds = %2
  %11 = load i32, ptr %4, align 4
  %12 = load i32, ptr %5, align 4
  %13 = icmp ult i32 %11, %12
  br i1 %13, label %14, label %15

14:                                               ; preds = %10
  store i32 -1, ptr %3, align 4
  br label %16

15:                                               ; preds = %10
  store i32 0, ptr %3, align 4
  br label %16

16:                                               ; preds = %15, %14, %9
  %17 = load i32, ptr %3, align 4
  ret i32 %17
}

; Function Attrs: nounwind uwtable
define internal void @_get_step_info_from_void(ptr noundef %0, ptr noundef %1, ptr noundef %2, ptr noundef %3) #0 {
  %5 = alloca ptr, align 8
  %6 = alloca ptr, align 8
  %7 = alloca ptr, align 8
  %8 = alloca ptr, align 8
  store ptr %0, ptr %5, align 8
  store ptr %1, ptr %6, align 8
  store ptr %2, ptr %7, align 8
  store ptr %3, ptr %8, align 8
  %9 = load ptr, ptr %7, align 8
  %10 = load ptr, ptr %9, align 8
  %11 = load ptr, ptr %5, align 8
  store ptr %10, ptr %11, align 8
  %12 = load ptr, ptr %8, align 8
  %13 = load ptr, ptr %12, align 8
  %14 = load ptr, ptr %6, align 8
  store ptr %13, ptr %14, align 8
  ret void
}

; Function Attrs: nounwind uwtable
define internal i32 @_sort_step_by_id(ptr noundef %0, ptr noundef %1) #0 {
  %3 = alloca ptr, align 8
  %4 = alloca ptr, align 8
  %5 = alloca i32, align 4
  %6 = alloca ptr, align 8
  %7 = alloca ptr, align 8
  store ptr %0, ptr %3, align 8
  store ptr %1, ptr %4, align 8
  call void @llvm.lifetime.start.p0(i64 4, ptr %5) #8
  call void @llvm.lifetime.start.p0(i64 8, ptr %6) #8
  call void @llvm.lifetime.start.p0(i64 8, ptr %7) #8
  %8 = load ptr, ptr %3, align 8
  %9 = load ptr, ptr %4, align 8
  call void @_get_step_info_from_void(ptr noundef %6, ptr noundef %7, ptr noundef %8, ptr noundef %9)
  %10 = load ptr, ptr %6, align 8
  %11 = getelementptr inbounds nuw %struct.job_step_info_t, ptr %10, i32 0, i32 24
  %12 = getelementptr inbounds nuw %struct.slurm_step_id_msg, ptr %11, i32 0, i32 1
  %13 = load i32, ptr %12, align 8
  %14 = load ptr, ptr %7, align 8
  %15 = getelementptr inbounds nuw %struct.job_step_info_t, ptr %14, i32 0, i32 24
  %16 = getelementptr inbounds nuw %struct.slurm_step_id_msg, ptr %15, i32 0, i32 1
  %17 = load i32, ptr %16, align 8
  %18 = call i32 @_diff_uint32(i32 noundef %13, i32 noundef %17)
  store i32 %18, ptr %5, align 4
  %19 = load i32, ptr %5, align 4
  %20 = icmp eq i32 %19, 0
  br i1 %20, label %21, label %31

21:                                               ; preds = %2
  %22 = load ptr, ptr %6, align 8
  %23 = getelementptr inbounds nuw %struct.job_step_info_t, ptr %22, i32 0, i32 24
  %24 = getelementptr inbounds nuw %struct.slurm_step_id_msg, ptr %23, i32 0, i32 3
  %25 = load i32, ptr %24, align 8
  %26 = load ptr, ptr %7, align 8
  %27 = getelementptr inbounds nuw %struct.job_step_info_t, ptr %26, i32 0, i32 24
  %28 = getelementptr inbounds nuw %struct.slurm_step_id_msg, ptr %27, i32 0, i32 3
  %29 = load i32, ptr %28, align 8
  %30 = call i32 @_diff_uint32(i32 noundef %25, i32 noundef %29)
  store i32 %30, ptr %5, align 4
  br label %31

31:                                               ; preds = %21, %2
  %32 = load i8, ptr @reverse_order, align 1, !range !11, !noundef !12
  %33 = trunc i8 %32 to i1
  br i1 %33, label %34, label %37

34:                                               ; preds = %31
  %35 = load i32, ptr %5, align 4
  %36 = sub nsw i32 0, %35
  store i32 %36, ptr %5, align 4
  br label %37

37:                                               ; preds = %34, %31
  %38 = load i32, ptr %5, align 4
  call void @llvm.lifetime.end.p0(i64 8, ptr %7) #8
  call void @llvm.lifetime.end.p0(i64 8, ptr %6) #8
  call void @llvm.lifetime.end.p0(i64 4, ptr %5) #8
  ret i32 %38
}