; Function Attrs: mustprogress nofree norecurse nosync nounwind willreturn memory(read, inaccessiblemem: none) uwtable
define internal range(i32 -1, 2) i32 @_sort_step_by_id(ptr noundef readonly captures(none) %0, ptr noundef readonly captures(none) %1) #5 {
  %.val = load ptr, ptr %0, align 8
  %3 = load ptr, ptr %1, align 8
  %4 = getelementptr inbounds nuw i8, ptr %.val, i64 168
  %5 = load i32, ptr %4, align 8
  %6 = getelementptr inbounds nuw i8, ptr %3, i64 168
  %7 = load i32, ptr %6, align 8
  %.0.i = tail call range(i32 -1, 2) i32 @llvm.ucmp.i32.i32(i32 %5, i32 %7)
  %8 = icmp eq i32 %5, %7
  br i1 %8, label %9, label %14

9:                                                ; preds = %2
  %10 = getelementptr inbounds nuw i8, ptr %.val, i64 176
  %11 = load i32, ptr %10, align 8
  %12 = getelementptr inbounds nuw i8, ptr %3, i64 176
  %13 = load i32, ptr %12, align 8
  %.0.i6 = tail call range(i32 -1, 2) i32 @llvm.ucmp.i32.i32(i32 %11, i32 %13)
  br label %14

14:                                               ; preds = %9, %2
  %.0 = phi i32 [ %.0.i6, %9 ], [ %.0.i, %2 ]
  %.b5 = load i1, ptr @reverse_order, align 1
  %15 = sub nsw i32 0, %.0
  %spec.select = select i1 %.b5, i32 %15, i32 %.0
  ret i32 %spec.select
}